target datalayout = "e-m:e-p270:32:32-p271:32:32-p272:64:64-i64:64-i128:128-f80:128-n8:16:32:64-S128"
target triple = "x86_64-pc-linux-gnu"

%struct.AfterTriggersData = type { i32, ptr, %struct.AfterTriggerEventList, ptr, ptr, i32, i32, ptr, i32 }
%struct.AfterTriggerEventList = type { ptr, ptr, ptr }
%struct.AfterTriggersTransData = type { ptr, %struct.AfterTriggerEventList, i32, i32 }

@afterTriggers = internal global %struct.AfterTriggersData zeroinitializer, align 8
@TopTransactionContext = external global ptr, align 8

; Function Attrs: nounwind uwtable
define dso_local void @AfterTriggerBeginSubXact() #0 {
  %1 = alloca i32, align 4
  %2 = alloca i32, align 4
  call void @llvm.lifetime.start.p0(i64 4, ptr %1) #12
  %3 = call i32 @GetCurrentTransactionNestLevel()
  store i32 %3, ptr %1, align 4
  br label %4

4:                                                ; preds = %23, %0
  %5 = load i32, ptr %1, align 4
  %6 = load i32, ptr getelementptr inbounds nuw (%struct.AfterTriggersData, ptr @afterTriggers, i32 0, i32 8), align 8
  %7 = icmp sge i32 %5, %6
  br i1 %7, label %8, label %24

8:                                                ; preds = %4
  %9 = load i32, ptr getelementptr inbounds nuw (%struct.AfterTriggersData, ptr @afterTriggers, i32 0, i32 8), align 8
  %10 = icmp eq i32 %9, 0
  br i1 %10, label %11, label %14

11:                                               ; preds = %8
  %12 = load ptr, ptr @TopTransactionContext, align 8
  %13 = call ptr @MemoryContextAlloc(ptr noundef %12, i64 noundef 320)
  store ptr %13, ptr getelementptr inbounds nuw (%struct.AfterTriggersData, ptr @afterTriggers, i32 0, i32 7), align 8
  store i32 8, ptr getelementptr inbounds nuw (%struct.AfterTriggersData, ptr @afterTriggers, i32 0, i32 8), align 8
  br label %23

14:                                               ; preds = %8
  call void @llvm.lifetime.start.p0(i64 4, ptr %2) #12
  %15 = load i32, ptr getelementptr inbounds nuw (%struct.AfterTriggersData, ptr @afterTriggers, i32 0, i32 8), align 8
  %16 = mul i32 %15, 2
  store i32 %16, ptr %2, align 4
  %17 = load ptr, ptr getelementptr inbounds nuw (%struct.AfterTriggersData, ptr @afterTriggers, i32 0, i32 7), align 8
  %18 = load i32, ptr %2, align 4
  %19 = sext i32 %18 to i64
  %20 = mul i64 %19, 40
  %21 = call ptr @repalloc(ptr noundef %17, i64 noundef %20)
  store ptr %21, ptr getelementptr inbounds nuw (%struct.AfterTriggersData, ptr @afterTriggers, i32 0, i32 7), align 8
  %22 = load i32, ptr %2, align 4
  store i32 %22, ptr getelementptr inbounds nuw (%struct.AfterTriggersData, ptr @afterTriggers, i32 0, i32 8), align 8
  call void @llvm.lifetime.end.p0(i64 4, ptr %2) #12
  br label %23

23:                                               ; preds = %14, %11
  br label %4, !llvm.loop !53

24:                                               ; preds = %4
  %25 = load ptr, ptr getelementptr inbounds nuw (%struct.AfterTriggersData, ptr @afterTriggers, i32 0, i32 7), align 8
  %26 = load i32, ptr %1, align 4
  %27 = sext i32 %26 to i64
  %28 = getelementptr inbounds %struct.AfterTriggersTransData, ptr %25, i64 %27
  %29 = getelementptr inbounds nuw %struct.AfterTriggersTransData, ptr %28, i32 0, i32 0
  store ptr null, ptr %29, align 8
  %30 = load ptr, ptr getelementptr inbounds nuw (%struct.AfterTriggersData, ptr @afterTriggers, i32 0, i32 7), align 8
  %31 = load i32, ptr %1, align 4
  %32 = sext i32 %31 to i64
  %33 = getelementptr inbounds %struct.AfterTriggersTransData, ptr %30, i64 %32
  %34 = getelementptr inbounds nuw %struct.AfterTriggersTransData, ptr %33, i32 0, i32 1
  call void @llvm.memcpy.p0.p0.i64(ptr align 8 %34, ptr align 8 getelementptr inbounds nuw (%struct.AfterTriggersData, ptr @afterTriggers, i32 0, i32 2), i64 24, i1 false)
  %35 = load i32, ptr getelementptr inbounds nuw (%struct.AfterTriggersData, ptr @afterTriggers, i32 0, i32 5), align 8
  %36 = load ptr, ptr getelementptr inbounds nuw (%struct.AfterTriggersData, ptr @afterTriggers, i32 0, i32 7), align 8
  %37 = load i32, ptr %1, align 4
  %38 = sext i32 %37 to i64
  %39 = getelementptr inbounds %struct.AfterTriggersTransData, ptr %36, i64 %38
  %40 = getelementptr inbounds nuw %struct.AfterTriggersTransData, ptr %39, i32 0, i32 2
  store i32 %35, ptr %40, align 8
  %41 = load i32, ptr @afterTriggers, align 8
  %42 = load ptr, ptr getelementptr inbounds nuw (%struct.AfterTriggersData, ptr @afterTriggers, i32 0, i32 7), align 8
  %43 = load i32, ptr %1, align 4
  %44 = sext i32 %43 to i64
  %45 = getelementptr inbounds %struct.AfterTriggersTransData, ptr %42, i64 %44
  %46 = getelementptr inbounds nuw %struct.AfterTriggersTransData, ptr %45, i32 0, i32 3
  store i32 %41, ptr %46, align 4
  call void @llvm.lifetime.end.p0(i64 4, ptr %1) #12
  ret void
}