; Function Attrs: nounwind uwtable
define dso_local void @AfterTriggerBeginSubXact() local_unnamed_addr #0 {
  %1 = tail call i32 @GetCurrentTransactionNestLevel() #16
  %.pr = load i32, ptr getelementptr inbounds nuw (i8, ptr @afterTriggers, i64 72), align 8
  %.not9 = icmp slt i32 %1, %.pr
  br i1 %.not9, label %.._crit_edge_crit_edge, label %.lr.ph

.._crit_edge_crit_edge:                           ; preds = %0
  %.pre = load ptr, ptr getelementptr inbounds nuw (i8, ptr @afterTriggers, i64 64), align 8
  br label %._crit_edge

.lr.ph:                                           ; preds = %0, %13
  %2 = phi i32 [ %storemerge, %13 ], [ %.pr, %0 ]
  %3 = icmp eq i32 %2, 0
  br i1 %3, label %4, label %7

4:                                                ; preds = %.lr.ph
  %5 = load ptr, ptr @TopTransactionContext, align 8
  %6 = tail call ptr @MemoryContextAlloc(ptr noundef %5, i64 noundef 320) #16
  br label %13

7:                                                ; preds = %.lr.ph
  %8 = shl i32 %2, 1
  %9 = load ptr, ptr getelementptr inbounds nuw (i8, ptr @afterTriggers, i64 64), align 8
  %10 = sext i32 %8 to i64
  %11 = mul nsw i64 %10, 40
  %12 = tail call ptr @repalloc(ptr noundef %9, i64 noundef %11) #16
  br label %13

13:                                               ; preds = %7, %4
  %storemerge8 = phi ptr [ %12, %7 ], [ %6, %4 ]
  %storemerge = phi i32 [ %8, %7 ], [ 8, %4 ]
  store ptr %storemerge8, ptr getelementptr inbounds nuw (i8, ptr @afterTriggers, i64 64), align 8
  store i32 %storemerge, ptr getelementptr inbounds nuw (i8, ptr @afterTriggers, i64 72), align 8
  %.not = icmp slt i32 %1, %storemerge
  br i1 %.not, label %._crit_edge, label %.lr.ph, !llvm.loop !50

._crit_edge:                                      ; preds = %13, %.._crit_edge_crit_edge
  %14 = phi ptr [ %.pre, %.._crit_edge_crit_edge ], [ %storemerge8, %13 ]
  %15 = sext i32 %1 to i64
  %16 = getelementptr inbounds %struct.AfterTriggersTransData, ptr %14, i64 %15
  store ptr null, ptr %16, align 8
  %17 = load ptr, ptr getelementptr inbounds nuw (i8, ptr @afterTriggers, i64 64), align 8
  %18 = getelementptr inbounds %struct.AfterTriggersTransData, ptr %17, i64 %15, i32 1
  tail call void @llvm.memcpy.p0.p0.i64(ptr noundef nonnull align 8 dereferenceable(24) %18, ptr noundef nonnull align 8 dereferenceable(24) getelementptr inbounds nuw (i8, ptr @afterTriggers, i64 16), i64 24, i1 false)
  %19 = load i32, ptr getelementptr inbounds nuw (i8, ptr @afterTriggers, i64 56), align 8
  %20 = load ptr, ptr getelementptr inbounds nuw (i8, ptr @afterTriggers, i64 64), align 8
  %21 = getelementptr inbounds %struct.AfterTriggersTransData, ptr %20, i64 %15, i32 2
  store i32 %19, ptr %21, align 8
  %22 = load i32, ptr @afterTriggers, align 8
  %23 = load ptr, ptr getelementptr inbounds nuw (i8, ptr @afterTriggers, i64 64), align 8
  %24 = getelementptr inbounds %struct.AfterTriggersTransData, ptr %23, i64 %15, i32 3
  store i32 %22, ptr %24, align 4
  ret void
}